; Function Attrs: null_pointer_is_valid sspstrong uwtable
define internal fastcc i32 @mapi_dissect_element_RopReply_CopyTo(ptr noundef %0, i32 noundef %1, ptr noundef %2, ptr noundef %3, ptr noundef %4, ptr noundef %5) unnamed_addr #0 {
  %7 = load i32, ptr @hf_mapi_RopReply_CopyTo, align 4
  %8 = getelementptr inbounds nuw i8, ptr %4, i64 26
  %9 = load i8, ptr %8, align 2, !range !9, !noundef !10
  store i8 1, ptr %8, align 2
  %.not.i = icmp eq ptr %3, null
  br i1 %.not.i, label %mapi_dissect_struct_CopyTo_repl.exit, label %10

10:                                               ; preds = %6
  %11 = tail call ptr @proto_tree_add_item(ptr noundef nonnull %3, i32 noundef %7, ptr noundef %0, i32 noundef %1, i32 noundef -1, i32 noundef 0)
  %12 = load i32, ptr @ett_mapi_CopyTo_repl, align 4
  %13 = tail call ptr @proto_item_add_subtree(ptr noundef %11, i32 noundef %12)
  br label %mapi_dissect_struct_CopyTo_repl.exit

mapi_dissect_struct_CopyTo_repl.exit:             ; preds = %6, %10
  %.026.i = phi ptr [ %13, %10 ], [ null, %6 ]
  %.0.i = phi ptr [ %11, %10 ], [ null, %6 ]
  %14 = load i32, ptr @hf_mapi_CopyTo_repl_PropertyProblemCount, align 4
  %15 = tail call i32 @PIDL_dissect_uint16(ptr noundef %0, i32 noundef %1, ptr noundef %2, ptr noundef %.026.i, ptr noundef %4, ptr noundef %5, i32 noundef %14, i32 noundef 0)
  %16 = tail call i32 @dissect_ndr_ucarray(ptr noundef %0, i32 noundef %15, ptr noundef %2, ptr noundef %.026.i, ptr noundef %4, ptr noundef %5, ptr noundef nonnull @mapi_dissect_element_CopyTo_repl_PropertyProblem_)
  %17 = sub i32 %16, %1
  tail call void @proto_item_set_len(ptr noundef %.0.i, i32 noundef %17)
  store i8 %9, ptr %8, align 2
  ret i32 %16
}